; Function Attrs: mustprogress nounwind uwtable
define hidden i64 @_ZNK7PackSet13get_bool_testEPK9Node_List(ptr nocapture noundef nonnull readnone align 8 dereferenceable(64) %0, ptr nocapture noundef readonly %1) local_unnamed_addr #0 align 2 {
  %3 = getelementptr inbounds i8, ptr %1, i64 16
  %4 = load ptr, ptr %3, align 8
  %5 = load ptr, ptr %4, align 8
  %6 = getelementptr inbounds i8, ptr %5, i64 52
  %7 = load i32, ptr %6, align 4
  %8 = getelementptr inbounds i8, ptr %5, i64 8
  %9 = load ptr, ptr %8, align 8
  %10 = getelementptr inbounds i8, ptr %9, i64 8
  %11 = load ptr, ptr %10, align 8
  %12 = load ptr, ptr %11, align 8
  %13 = load ptr, ptr %12, align 8
  %14 = tail call noundef i32 %13(ptr noundef nonnull align 8 dereferenceable(52) %11) #12
  %15 = icmp eq i32 %14, 79
  br i1 %15, label %21, label %16

16:                                               ; preds = %2
  %17 = load ptr, ptr %11, align 8
  %18 = load ptr, ptr %17, align 8
  %19 = tail call noundef i32 %18(ptr noundef nonnull align 8 dereferenceable(52) %11) #12
  %20 = icmp eq i32 %19, 77
  br i1 %20, label %21, label %25

21:                                               ; preds = %16, %2
  switch i32 %7, label %25 [
    i32 5, label %22
    i32 3, label %22
  ]

22:                                               ; preds = %21, %21
  %23 = load i32, ptr %6, align 4
  %24 = xor i32 %23, 4
  br label %25

25:                                               ; preds = %21, %22, %16
  %.010 = phi i64 [ 4294967296, %22 ], [ 0, %21 ], [ 0, %16 ]
  %.0 = phi i32 [ %24, %22 ], [ %7, %21 ], [ %7, %16 ]
  %.sroa.0.0.insert.ext = zext i32 %.0 to i64
  %.sroa.0.0.insert.insert = or disjoint i64 %.010, %.sroa.0.0.insert.ext
  ret i64 %.sroa.0.0.insert.insert
}